target datalayout = "e-m:e-p270:32:32-p271:32:32-p272:64:64-i64:64-i128:128-f80:128-n8:16:32:64-S128"
target triple = "x86_64-pc-linux-gnu"

; Function Attrs: nounwind uwtable
define void @rupshift(ptr noundef %0) #0 {
  %2 = alloca ptr, align 8
  %3 = alloca i32, align 4
  %4 = alloca i32, align 4
  store ptr %0, ptr %2, align 8
  br label %5

5:                                                ; preds = %36, %1
  %6 = load ptr, ptr %2, align 8
  %7 = load i8, ptr %6, align 1
  %8 = sext i8 %7 to i32
  %9 = icmp ne i32 %8, 0
  br i1 %9, label %10, label %39

10:                                               ; preds = %5
  %11 = call ptr @__ctype_b_loc() #8
  %12 = load ptr, ptr %11, align 8
  %13 = load ptr, ptr %2, align 8
  %14 = load i8, ptr %13, align 1
  %15 = zext i8 %14 to i32
  %16 = sext i32 %15 to i64
  %17 = getelementptr inbounds i16, ptr %12, i64 %16
  %18 = load i16, ptr %17, align 2
  %19 = zext i16 %18 to i32
  %20 = and i32 %19, 512
  %21 = icmp ne i32 %20, 0
  br i1 %21, label %22, label %35

22:                                               ; preds = %10
  call void @llvm.lifetime.start.p0(i64 4, ptr %3) #9
  %23 = call ptr @__ctype_toupper_loc() #8
  %24 = load ptr, ptr %23, align 8
  %25 = load ptr, ptr %2, align 8
  %26 = load i8, ptr %25, align 1
  %27 = zext i8 %26 to i32
  %28 = sext i32 %27 to i64
  %29 = getelementptr inbounds i32, ptr %24, i64 %28
  %30 = load i32, ptr %29, align 4
  store i32 %30, ptr %3, align 4
  %31 = load i32, ptr %3, align 4
  store i32 %31, ptr %4, align 4
  call void @llvm.lifetime.end.p0(i64 4, ptr %3) #9
  %32 = load i32, ptr %4, align 4
  %33 = trunc i32 %32 to i8
  %34 = load ptr, ptr %2, align 8
  store i8 %33, ptr %34, align 1
  br label %35

35:                                               ; preds = %22, %10
  br label %36

36:                                               ; preds = %35
  %37 = load ptr, ptr %2, align 8
  %38 = getelementptr inbounds nuw i8, ptr %37, i32 1
  store ptr %38, ptr %2, align 8
  br label %5, !llvm.loop !9

39:                                               ; preds = %5
  ret void
}