; Function Attrs: nofree nosync nounwind memory(read, argmem: readwrite, inaccessiblemem: none) uwtable
define void @rupshift(ptr noundef captures(none) %0) local_unnamed_addr #10 {
  %2 = load i8, ptr %0, align 1
  %.not7 = icmp eq i8 %2, 0
  br i1 %.not7, label %._crit_edge, label %.lr.ph

.lr.ph:                                           ; preds = %1
  %3 = tail call ptr @__ctype_b_loc() #15
  br label %4

4:                                                ; preds = %.lr.ph, %17
  %5 = phi i8 [ %2, %.lr.ph ], [ %19, %17 ]
  %.08 = phi ptr [ %0, %.lr.ph ], [ %18, %17 ]
  %6 = load ptr, ptr %3, align 8
  %7 = zext i8 %5 to i64
  %8 = getelementptr inbounds nuw i16, ptr %6, i64 %7
  %9 = load i16, ptr %8, align 2
  %10 = and i16 %9, 512
  %.not6 = icmp eq i16 %10, 0
  br i1 %.not6, label %17, label %11

11:                                               ; preds = %4
  %12 = tail call ptr @__ctype_toupper_loc() #15
  %13 = load ptr, ptr %12, align 8
  %14 = getelementptr inbounds nuw i32, ptr %13, i64 %7
  %15 = load i32, ptr %14, align 4
  %16 = trunc i32 %15 to i8
  store i8 %16, ptr %.08, align 1
  br label %17

17:                                               ; preds = %4, %11
  %18 = getelementptr inbounds nuw i8, ptr %.08, i64 1
  %19 = load i8, ptr %18, align 1
  %.not = icmp eq i8 %19, 0
  br i1 %.not, label %._crit_edge, label %4, !llvm.loop !10

._crit_edge:                                      ; preds = %17, %1
  ret void
}